((lp0
(F41145.0
tp1
a(F23961.0
tp2
a(F34674.0
tp3
a(F24992.0
tp4
a(F112296.0
tp5
a(F176503.0
tp6
a(F46397.0
tp7
a(F50674.0
tp8
a(F106408.0
tp9
a(F118273.0
tp10
a(F35064.0
tp11
a(F22291.0
tp12
a(F80214.0
tp13
a(F90527.0
tp14
a(F89547.0
tp15
a(F54968.0
tp16
a(F29065.0
tp17
a(F25368.0
tp18
a(F185371.0
tp19
a(F71367.0
tp20
a(F41031.0
tp21
a(F181110.0
tp22
a(F89312.0
tp23
a(F32419.0
tp24
a(F25141.0
tp25
a(F48104.0
tp26
a(F94724.0
tp27
a(lp28
S'time'
p29
atp30
.